#include <math.h>
#include <stdio.h>
#include <stdlib.h>
#include <string.h>

int main()
{
    char s[50][32],w[50][32]={"\0","\0","\0","\0","\0","\0","\0","\0","\0","\0","\0","\0","\0","\0","\0","\0","\0","\0","\0","\0","\0","\0","\0","\0","\0","\0","\0","\0","\0","\0","\0","\0"};
    int n,i,l;
    scanf("%d\n",&n);
    for(i=0;i<=n-1;i++)
    {
      gets(s[i]);
    }
    for(i=0;i<=n-1;i++)
    {
      l=strlen(s[i]);
      if(s[i][l-1]=='g'&&s[i][l-2]=='n'&&s[i][l-3]=='i') strncpy(w[i],s[i],l-3);
      else strncpy(w[i],s[i],l-2);
    }
     for(i=0;i<=n-1;i++)
    {
      puts(w[i]);
      
    }
    
}
